MPLINK 4.48, Linker
Linker Map File - Created Wed Oct 22 13:56:19 2014

                                 Section Info
                  Section       Type    Address   Location Size(Bytes)
                ---------  ---------  ---------  ---------  ---------
               _entry_scn       code   0x000000    program   0x000006
                   .cinit    romdata   0x000006    program   0x00000e
    .code_main_OA_0.9.1.o       code   0x000014    program   0x000708
               _cinit_scn       code   0x00071c    program   0x00009e
           .code_t0open.o       code   0x0007ba    program   0x000038
                    .code       code   0x0007f2    program   0x000020
             _startup_scn       code   0x000812    program   0x00001c
           .code___init.o       code   0x00082e    program   0x000002
 .idata_main_OA_0.9.1.o_i    romdata   0x000830    program   0x000022
 .romdata_main_OA_0.9.1.o    romdata   0x000830    program   0x000000
         .romdata_c018i.o    romdata   0x000830    program   0x000000
        .idata_t0open.o_i    romdata   0x000830    program   0x000000
        .romdata_t0open.o    romdata   0x000830    program   0x000000
        .romdata___init.o    romdata   0x000830    program   0x000000
            .code_c018i.o       code   0x000852    program   0x000000
        .idata___init.o_i    romdata   0x000852    program   0x000000
         .idata_c018i.o_i    romdata   0x000852    program   0x000000
          volatile_access      udata   0x000000       data   0x000063
YourHighPriorityISRCode_tmp      udata   0x000063       data   0x000004
                 .tmpdata      udata   0x000067       data   0x000004
                MATH_DATA      udata   0x00006b       data   0x000002
   .udata_main_OA_0.9.1.o      udata   0x000080       data   0x000028
   .idata_main_OA_0.9.1.o      idata   0x0000a8       data   0x000022
           .udata_c018i.o      udata   0x0000ca       data   0x00000a
           .idata_c018i.o      idata   0x0000d4       data   0x000000
          .udata_t0open.o      udata   0x0000d4       data   0x000000
          .idata_t0open.o      idata   0x0000d4       data   0x000000
          .udata___init.o      udata   0x0000d4       data   0x000000
          .idata___init.o      idata   0x0000d4       data   0x000000
                   .stack      udata   0x000500       data   0x000100
            SFR_UNBANKED0      udata   0x000f80       data   0x000080



                              Program Memory Usage 
                               Start         End      
                           ---------   ---------      
                            0x000000    0x000851      
            2130 out of 33048 program addresses used, program memory utilization is 6%



                              Symbols - Sorted by Name
                     Name    Address   Location    Storage File                     
                ---------  ---------  ---------  --------- ---------                
                     Init   0x000184    program     extern C:\Users\KBV\Desktop\Docus\Automan\Automation Project\Firmware\18F4520 IO card\Peters SSL PCB 18F4520\main_OA_0.9.1.c
                LEDaction   0x0006ac    program     extern C:\Users\KBV\Desktop\Docus\Automan\Automation Project\Firmware\18F4520 IO card\Peters SSL PCB 18F4520\main_OA_0.9.1.c
             Motor_Faders   0x000424    program     extern C:\Users\KBV\Desktop\Docus\Automan\Automation Project\Firmware\18F4520 IO card\Peters SSL PCB 18F4520\main_OA_0.9.1.c
               OpenTimer0   0x0007ba    program     extern E:\c18v3.46\pic18-lt\cxx-framework\src\pmc_common\Timers\t0open.c
            Read_Switches   0x0006aa    program     extern C:\Users\KBV\Desktop\Docus\Automan\Automation Project\Firmware\18F4520 IO card\Peters SSL PCB 18F4520\main_OA_0.9.1.c
                 Set_Leds   0x0006a8    program     extern C:\Users\KBV\Desktop\Docus\Automan\Automation Project\Firmware\18F4520 IO card\Peters SSL PCB 18F4520\main_OA_0.9.1.c
                Set_Mutes   0x0006a6    program     extern C:\Users\KBV\Desktop\Docus\Automan\Automation Project\Firmware\18F4520 IO card\Peters SSL PCB 18F4520\main_OA_0.9.1.c
  YourHighPriorityISRCode   0x000014    program     extern C:\Users\KBV\Desktop\Docus\Automan\Automation Project\Firmware\18F4520 IO card\Peters SSL PCB 18F4520\main_OA_0.9.1.c
   YourLowPriorityISRCode   0x00015e    program     extern C:\Users\KBV\Desktop\Docus\Automan\Automation Project\Firmware\18F4520 IO card\Peters SSL PCB 18F4520\main_OA_0.9.1.c
       ___return_lbl00000   0x000004    program     static                          
       ___return_lbl00001   0x00082c    program     static                          
       ___return_lbl00002   0x0007b8    program     static                          
                   __init   0x00082e    program     extern E:\c18v3.46\pic18-lt\cxx-framework\src\traditional\stdclib\__init.c
            __zero_memory   0x0007f2    program     extern E:\c18v3.46\pic18-lt\cxx-framework\src\traditional\proc\p18f4520.asm
                _do_cinit   0x00071c    program     extern E:\c18v3.46\pic18-lt\cxx-framework\src\traditional\startup\c018i.c
                   _entry   0x000000    program     extern E:\c18v3.46\pic18-lt\cxx-framework\src\traditional\startup\c018i.c
                 _startup   0x000812    program     extern E:\c18v3.46\pic18-lt\cxx-framework\src\traditional\startup\c018i.c
                compare_l   0x000808    program     static E:\c18v3.46\pic18-lt\cxx-framework\src\traditional\proc\p18f4520.asm
                copy_loop   0x00078e    program     static                          
            copy_one_byte   0x000794    program     static                          
                     done   0x0007b8    program     static                          
             done_copying   0x0007a2    program     static                          
                     loop   0x000822    program     static                          
                   loop_h   0x000800    program     static E:\c18v3.46\pic18-lt\cxx-framework\src\traditional\proc\p18f4520.asm
                   loop_l   0x00080a    program     static E:\c18v3.46\pic18-lt\cxx-framework\src\traditional\proc\p18f4520.asm
                     main   0x00027c    program     extern C:\Users\KBV\Desktop\Docus\Automan\Automation Project\Firmware\18F4520 IO card\Peters SSL PCB 18F4520\main_OA_0.9.1.c
                     test   0x000736    program     static                          
               zero_block   0x000800    program     static E:\c18v3.46\pic18-lt\cxx-framework\src\traditional\proc\p18f4520.asm
                   ADCON0   0x000fc2       data     extern E:\c18v3.46\pic18-lt\cxx-framework\src\traditional\proc\p18f4520.asm
               ADCON0bits   0x000fc2       data     extern E:\c18v3.46\pic18-lt\cxx-framework\src\traditional\proc\p18f4520.asm
                   ADCON1   0x000fc1       data     extern E:\c18v3.46\pic18-lt\cxx-framework\src\traditional\proc\p18f4520.asm
               ADCON1bits   0x000fc1       data     extern E:\c18v3.46\pic18-lt\cxx-framework\src\traditional\proc\p18f4520.asm
                   ADCON2   0x000fc0       data     extern E:\c18v3.46\pic18-lt\cxx-framework\src\traditional\proc\p18f4520.asm
               ADCON2bits   0x000fc0       data     extern E:\c18v3.46\pic18-lt\cxx-framework\src\traditional\proc\p18f4520.asm
                    ADRES   0x000fc3       data     extern E:\c18v3.46\pic18-lt\cxx-framework\src\traditional\proc\p18f4520.asm
                   ADRESH   0x000fc4       data     extern E:\c18v3.46\pic18-lt\cxx-framework\src\traditional\proc\p18f4520.asm
                   ADRESL   0x000fc3       data     extern E:\c18v3.46\pic18-lt\cxx-framework\src\traditional\proc\p18f4520.asm
                  BAUDCON   0x000fb8       data     extern E:\c18v3.46\pic18-lt\cxx-framework\src\traditional\proc\p18f4520.asm
              BAUDCONbits   0x000fb8       data     extern E:\c18v3.46\pic18-lt\cxx-framework\src\traditional\proc\p18f4520.asm
                  BAUDCTL   0x000fb8       data     extern E:\c18v3.46\pic18-lt\cxx-framework\src\traditional\proc\p18f4520.asm
              BAUDCTLbits   0x000fb8       data     extern E:\c18v3.46\pic18-lt\cxx-framework\src\traditional\proc\p18f4520.asm
                      BSR   0x000fe0       data     extern E:\c18v3.46\pic18-lt\cxx-framework\src\traditional\proc\p18f4520.asm
                 BlinkCnt   0x0000a9       data     extern C:\Users\KBV\Desktop\Docus\Automan\Automation Project\Firmware\18F4520 IO card\Peters SSL PCB 18F4520\main_OA_0.9.1.c
                 BlinkLED   0x0000ab       data     extern C:\Users\KBV\Desktop\Docus\Automan\Automation Project\Firmware\18F4520 IO card\Peters SSL PCB 18F4520\main_OA_0.9.1.c
                  CCP1CON   0x000fbd       data     extern E:\c18v3.46\pic18-lt\cxx-framework\src\traditional\proc\p18f4520.asm
              CCP1CONbits   0x000fbd       data     extern E:\c18v3.46\pic18-lt\cxx-framework\src\traditional\proc\p18f4520.asm
                  CCP2CON   0x000fba       data     extern E:\c18v3.46\pic18-lt\cxx-framework\src\traditional\proc\p18f4520.asm
              CCP2CONbits   0x000fba       data     extern E:\c18v3.46\pic18-lt\cxx-framework\src\traditional\proc\p18f4520.asm
                    CCPR1   0x000fbe       data     extern E:\c18v3.46\pic18-lt\cxx-framework\src\traditional\proc\p18f4520.asm
                   CCPR1H   0x000fbf       data     extern E:\c18v3.46\pic18-lt\cxx-framework\src\traditional\proc\p18f4520.asm
                   CCPR1L   0x000fbe       data     extern E:\c18v3.46\pic18-lt\cxx-framework\src\traditional\proc\p18f4520.asm
                    CCPR2   0x000fbb       data     extern E:\c18v3.46\pic18-lt\cxx-framework\src\traditional\proc\p18f4520.asm
                   CCPR2H   0x000fbc       data     extern E:\c18v3.46\pic18-lt\cxx-framework\src\traditional\proc\p18f4520.asm
                   CCPR2L   0x000fbb       data     extern E:\c18v3.46\pic18-lt\cxx-framework\src\traditional\proc\p18f4520.asm
                    CMCON   0x000fb4       data     extern E:\c18v3.46\pic18-lt\cxx-framework\src\traditional\proc\p18f4520.asm
                CMCONbits   0x000fb4       data     extern E:\c18v3.46\pic18-lt\cxx-framework\src\traditional\proc\p18f4520.asm
                   CVRCON   0x000fb5       data     extern E:\c18v3.46\pic18-lt\cxx-framework\src\traditional\proc\p18f4520.asm
               CVRCONbits   0x000fb5       data     extern E:\c18v3.46\pic18-lt\cxx-framework\src\traditional\proc\p18f4520.asm
                     DDRA   0x000f92       data     extern E:\c18v3.46\pic18-lt\cxx-framework\src\traditional\proc\p18f4520.asm
                 DDRAbits   0x000f92       data     extern E:\c18v3.46\pic18-lt\cxx-framework\src\traditional\proc\p18f4520.asm
                     DDRB   0x000f93       data     extern E:\c18v3.46\pic18-lt\cxx-framework\src\traditional\proc\p18f4520.asm
                 DDRBbits   0x000f93       data     extern E:\c18v3.46\pic18-lt\cxx-framework\src\traditional\proc\p18f4520.asm
                     DDRC   0x000f94       data     extern E:\c18v3.46\pic18-lt\cxx-framework\src\traditional\proc\p18f4520.asm
                 DDRCbits   0x000f94       data     extern E:\c18v3.46\pic18-lt\cxx-framework\src\traditional\proc\p18f4520.asm
                     DDRD   0x000f95       data     extern E:\c18v3.46\pic18-lt\cxx-framework\src\traditional\proc\p18f4520.asm
                 DDRDbits   0x000f95       data     extern E:\c18v3.46\pic18-lt\cxx-framework\src\traditional\proc\p18f4520.asm
                     DDRE   0x000f96       data     extern E:\c18v3.46\pic18-lt\cxx-framework\src\traditional\proc\p18f4520.asm
                 DDREbits   0x000f96       data     extern E:\c18v3.46\pic18-lt\cxx-framework\src\traditional\proc\p18f4520.asm
                  ECCP1AS   0x000fb6       data     extern E:\c18v3.46\pic18-lt\cxx-framework\src\traditional\proc\p18f4520.asm
              ECCP1ASbits   0x000fb6       data     extern E:\c18v3.46\pic18-lt\cxx-framework\src\traditional\proc\p18f4520.asm
                 ECCP1DEL   0x000fb7       data     extern E:\c18v3.46\pic18-lt\cxx-framework\src\traditional\proc\p18f4520.asm
             ECCP1DELbits   0x000fb7       data     extern E:\c18v3.46\pic18-lt\cxx-framework\src\traditional\proc\p18f4520.asm
                   ECCPAS   0x000fb6       data     extern E:\c18v3.46\pic18-lt\cxx-framework\src\traditional\proc\p18f4520.asm
               ECCPASbits   0x000fb6       data     extern E:\c18v3.46\pic18-lt\cxx-framework\src\traditional\proc\p18f4520.asm
                    EEADR   0x000fa9       data     extern E:\c18v3.46\pic18-lt\cxx-framework\src\traditional\proc\p18f4520.asm
                   EECON1   0x000fa6       data     extern E:\c18v3.46\pic18-lt\cxx-framework\src\traditional\proc\p18f4520.asm
               EECON1bits   0x000fa6       data     extern E:\c18v3.46\pic18-lt\cxx-framework\src\traditional\proc\p18f4520.asm
                   EECON2   0x000fa7       data     extern E:\c18v3.46\pic18-lt\cxx-framework\src\traditional\proc\p18f4520.asm
                   EEDATA   0x000fa8       data     extern E:\c18v3.46\pic18-lt\cxx-framework\src\traditional\proc\p18f4520.asm
                     FSR0   0x000fe9       data     extern E:\c18v3.46\pic18-lt\cxx-framework\src\traditional\proc\p18f4520.asm
                    FSR0H   0x000fea       data     extern E:\c18v3.46\pic18-lt\cxx-framework\src\traditional\proc\p18f4520.asm
                    FSR0L   0x000fe9       data     extern E:\c18v3.46\pic18-lt\cxx-framework\src\traditional\proc\p18f4520.asm
                     FSR1   0x000fe1       data     extern E:\c18v3.46\pic18-lt\cxx-framework\src\traditional\proc\p18f4520.asm
                    FSR1H   0x000fe2       data     extern E:\c18v3.46\pic18-lt\cxx-framework\src\traditional\proc\p18f4520.asm
                    FSR1L   0x000fe1       data     extern E:\c18v3.46\pic18-lt\cxx-framework\src\traditional\proc\p18f4520.asm
                     FSR2   0x000fd9       data     extern E:\c18v3.46\pic18-lt\cxx-framework\src\traditional\proc\p18f4520.asm
                    FSR2H   0x000fda       data     extern E:\c18v3.46\pic18-lt\cxx-framework\src\traditional\proc\p18f4520.asm
                    FSR2L   0x000fd9       data     extern E:\c18v3.46\pic18-lt\cxx-framework\src\traditional\proc\p18f4520.asm
                HANDSHAKE   0x0000a8       data     extern C:\Users\KBV\Desktop\Docus\Automan\Automation Project\Firmware\18F4520 IO card\Peters SSL PCB 18F4520\main_OA_0.9.1.c
                  HLVDCON   0x000fd2       data     extern E:\c18v3.46\pic18-lt\cxx-framework\src\traditional\proc\p18f4520.asm
              HLVDCONbits   0x000fd2       data     extern E:\c18v3.46\pic18-lt\cxx-framework\src\traditional\proc\p18f4520.asm
                    INDF0   0x000fef       data     extern E:\c18v3.46\pic18-lt\cxx-framework\src\traditional\proc\p18f4520.asm
                    INDF1   0x000fe7       data     extern E:\c18v3.46\pic18-lt\cxx-framework\src\traditional\proc\p18f4520.asm
                    INDF2   0x000fdf       data     extern E:\c18v3.46\pic18-lt\cxx-framework\src\traditional\proc\p18f4520.asm
                   INTCON   0x000ff2       data     extern E:\c18v3.46\pic18-lt\cxx-framework\src\traditional\proc\p18f4520.asm
                  INTCON2   0x000ff1       data     extern E:\c18v3.46\pic18-lt\cxx-framework\src\traditional\proc\p18f4520.asm
              INTCON2bits   0x000ff1       data     extern E:\c18v3.46\pic18-lt\cxx-framework\src\traditional\proc\p18f4520.asm
                  INTCON3   0x000ff0       data     extern E:\c18v3.46\pic18-lt\cxx-framework\src\traditional\proc\p18f4520.asm
              INTCON3bits   0x000ff0       data     extern E:\c18v3.46\pic18-lt\cxx-framework\src\traditional\proc\p18f4520.asm
               INTCONbits   0x000ff2       data     extern E:\c18v3.46\pic18-lt\cxx-framework\src\traditional\proc\p18f4520.asm
                 INbuffer   0x000013       data     extern C:\Users\KBV\Desktop\Docus\Automan\Automation Project\Firmware\18F4520 IO card\Peters SSL PCB 18F4520\main_OA_0.9.1.c
                   INdata   0x000003       data     extern C:\Users\KBV\Desktop\Docus\Automan\Automation Project\Firmware\18F4520 IO card\Peters SSL PCB 18F4520\main_OA_0.9.1.c
                     IPR1   0x000f9f       data     extern E:\c18v3.46\pic18-lt\cxx-framework\src\traditional\proc\p18f4520.asm
                 IPR1bits   0x000f9f       data     extern E:\c18v3.46\pic18-lt\cxx-framework\src\traditional\proc\p18f4520.asm
                     IPR2   0x000fa2       data     extern E:\c18v3.46\pic18-lt\cxx-framework\src\traditional\proc\p18f4520.asm
                 IPR2bits   0x000fa2       data     extern E:\c18v3.46\pic18-lt\cxx-framework\src\traditional\proc\p18f4520.asm
                     LATA   0x000f89       data     extern E:\c18v3.46\pic18-lt\cxx-framework\src\traditional\proc\p18f4520.asm
                 LATAbits   0x000f89       data     extern E:\c18v3.46\pic18-lt\cxx-framework\src\traditional\proc\p18f4520.asm
                     LATB   0x000f8a       data     extern E:\c18v3.46\pic18-lt\cxx-framework\src\traditional\proc\p18f4520.asm
                 LATBbits   0x000f8a       data     extern E:\c18v3.46\pic18-lt\cxx-framework\src\traditional\proc\p18f4520.asm
                     LATC   0x000f8b       data     extern E:\c18v3.46\pic18-lt\cxx-framework\src\traditional\proc\p18f4520.asm
                 LATCbits   0x000f8b       data     extern E:\c18v3.46\pic18-lt\cxx-framework\src\traditional\proc\p18f4520.asm
                     LATD   0x000f8c       data     extern E:\c18v3.46\pic18-lt\cxx-framework\src\traditional\proc\p18f4520.asm
                 LATDbits   0x000f8c       data     extern E:\c18v3.46\pic18-lt\cxx-framework\src\traditional\proc\p18f4520.asm
                     LATE   0x000f8d       data     extern E:\c18v3.46\pic18-lt\cxx-framework\src\traditional\proc\p18f4520.asm
                 LATEbits   0x000f8d       data     extern E:\c18v3.46\pic18-lt\cxx-framework\src\traditional\proc\p18f4520.asm
                  LEDcntr   0x0000c4       data     static C:\Users\KBV\Desktop\Docus\Automan\Automation Project\Firmware\18F4520 IO card\Peters SSL PCB 18F4520\main_OA_0.9.1.c
                 LEDcntr2   0x0000c8       data     static C:\Users\KBV\Desktop\Docus\Automan\Automation Project\Firmware\18F4520 IO card\Peters SSL PCB 18F4520\main_OA_0.9.1.c
                   LEDdim   0x0000c6       data     static C:\Users\KBV\Desktop\Docus\Automan\Automation Project\Firmware\18F4520 IO card\Peters SSL PCB 18F4520\main_OA_0.9.1.c
                LEDtoggle   0x0000ac       data     extern C:\Users\KBV\Desktop\Docus\Automan\Automation Project\Firmware\18F4520 IO card\Peters SSL PCB 18F4520\main_OA_0.9.1.c
                   LVDCON   0x000fd2       data     extern E:\c18v3.46\pic18-lt\cxx-framework\src\traditional\proc\p18f4520.asm
               LVDCONbits   0x000fd2       data     extern E:\c18v3.46\pic18-lt\cxx-framework\src\traditional\proc\p18f4520.asm
                   Ltimer   0x000087       data     extern C:\Users\KBV\Desktop\Docus\Automan\Automation Project\Firmware\18F4520 IO card\Peters SSL PCB 18F4520\main_OA_0.9.1.c
                  MFtimer   0x0000b8       data     extern C:\Users\KBV\Desktop\Docus\Automan\Automation Project\Firmware\18F4520 IO card\Peters SSL PCB 18F4520\main_OA_0.9.1.c
              MFtimerTick   0x0000a7       data     extern C:\Users\KBV\Desktop\Docus\Automan\Automation Project\Firmware\18F4520 IO card\Peters SSL PCB 18F4520\main_OA_0.9.1.c
                   OSCCON   0x000fd3       data     extern E:\c18v3.46\pic18-lt\cxx-framework\src\traditional\proc\p18f4520.asm
               OSCCONbits   0x000fd3       data     extern E:\c18v3.46\pic18-lt\cxx-framework\src\traditional\proc\p18f4520.asm
                  OSCTUNE   0x000f9b       data     extern E:\c18v3.46\pic18-lt\cxx-framework\src\traditional\proc\p18f4520.asm
              OSCTUNEbits   0x000f9b       data     extern E:\c18v3.46\pic18-lt\cxx-framework\src\traditional\proc\p18f4520.asm
                  OUTdata   0x000023       data     extern C:\Users\KBV\Desktop\Docus\Automan\Automation Project\Firmware\18F4520 IO card\Peters SSL PCB 18F4520\main_OA_0.9.1.c
                       PC   0x000ff9       data     extern E:\c18v3.46\pic18-lt\cxx-framework\src\traditional\proc\p18f4520.asm
                      PCL   0x000ff9       data     extern E:\c18v3.46\pic18-lt\cxx-framework\src\traditional\proc\p18f4520.asm
                   PCLATH   0x000ffa       data     extern E:\c18v3.46\pic18-lt\cxx-framework\src\traditional\proc\p18f4520.asm
                   PCLATU   0x000ffb       data     extern E:\c18v3.46\pic18-lt\cxx-framework\src\traditional\proc\p18f4520.asm
                     PIE1   0x000f9d       data     extern E:\c18v3.46\pic18-lt\cxx-framework\src\traditional\proc\p18f4520.asm
                 PIE1bits   0x000f9d       data     extern E:\c18v3.46\pic18-lt\cxx-framework\src\traditional\proc\p18f4520.asm
                     PIE2   0x000fa0       data     extern E:\c18v3.46\pic18-lt\cxx-framework\src\traditional\proc\p18f4520.asm
                 PIE2bits   0x000fa0       data     extern E:\c18v3.46\pic18-lt\cxx-framework\src\traditional\proc\p18f4520.asm
                     PIR1   0x000f9e       data     extern E:\c18v3.46\pic18-lt\cxx-framework\src\traditional\proc\p18f4520.asm
                 PIR1bits   0x000f9e       data     extern E:\c18v3.46\pic18-lt\cxx-framework\src\traditional\proc\p18f4520.asm
                     PIR2   0x000fa1       data     extern E:\c18v3.46\pic18-lt\cxx-framework\src\traditional\proc\p18f4520.asm
                 PIR2bits   0x000fa1       data     extern E:\c18v3.46\pic18-lt\cxx-framework\src\traditional\proc\p18f4520.asm
                   PLUSW0   0x000feb       data     extern E:\c18v3.46\pic18-lt\cxx-framework\src\traditional\proc\p18f4520.asm
                   PLUSW1   0x000fe3       data     extern E:\c18v3.46\pic18-lt\cxx-framework\src\traditional\proc\p18f4520.asm
                   PLUSW2   0x000fdb       data     extern E:\c18v3.46\pic18-lt\cxx-framework\src\traditional\proc\p18f4520.asm
                    PORTA   0x000f80       data     extern E:\c18v3.46\pic18-lt\cxx-framework\src\traditional\proc\p18f4520.asm
                PORTAbits   0x000f80       data     extern E:\c18v3.46\pic18-lt\cxx-framework\src\traditional\proc\p18f4520.asm
                    PORTB   0x000f81       data     extern E:\c18v3.46\pic18-lt\cxx-framework\src\traditional\proc\p18f4520.asm
                PORTBbits   0x000f81       data     extern E:\c18v3.46\pic18-lt\cxx-framework\src\traditional\proc\p18f4520.asm
                    PORTC   0x000f82       data     extern E:\c18v3.46\pic18-lt\cxx-framework\src\traditional\proc\p18f4520.asm
                PORTCbits   0x000f82       data     extern E:\c18v3.46\pic18-lt\cxx-framework\src\traditional\proc\p18f4520.asm
                    PORTD   0x000f83       data     extern E:\c18v3.46\pic18-lt\cxx-framework\src\traditional\proc\p18f4520.asm
                PORTDbits   0x000f83       data     extern E:\c18v3.46\pic18-lt\cxx-framework\src\traditional\proc\p18f4520.asm
                    PORTE   0x000f84       data     extern E:\c18v3.46\pic18-lt\cxx-framework\src\traditional\proc\p18f4520.asm
                PORTEbits   0x000f84       data     extern E:\c18v3.46\pic18-lt\cxx-framework\src\traditional\proc\p18f4520.asm
                 POSTDEC0   0x000fed       data     extern E:\c18v3.46\pic18-lt\cxx-framework\src\traditional\proc\p18f4520.asm
                 POSTDEC1   0x000fe5       data     extern E:\c18v3.46\pic18-lt\cxx-framework\src\traditional\proc\p18f4520.asm
                 POSTDEC2   0x000fdd       data     extern E:\c18v3.46\pic18-lt\cxx-framework\src\traditional\proc\p18f4520.asm
                 POSTINC0   0x000fee       data     extern E:\c18v3.46\pic18-lt\cxx-framework\src\traditional\proc\p18f4520.asm
                 POSTINC1   0x000fe6       data     extern E:\c18v3.46\pic18-lt\cxx-framework\src\traditional\proc\p18f4520.asm
                 POSTINC2   0x000fde       data     extern E:\c18v3.46\pic18-lt\cxx-framework\src\traditional\proc\p18f4520.asm
                      PR2   0x000fcb       data     extern E:\c18v3.46\pic18-lt\cxx-framework\src\traditional\proc\p18f4520.asm
                  PREINC0   0x000fec       data     extern E:\c18v3.46\pic18-lt\cxx-framework\src\traditional\proc\p18f4520.asm
                  PREINC1   0x000fe4       data     extern E:\c18v3.46\pic18-lt\cxx-framework\src\traditional\proc\p18f4520.asm
                  PREINC2   0x000fdc       data     extern E:\c18v3.46\pic18-lt\cxx-framework\src\traditional\proc\p18f4520.asm
                     PROD   0x000ff3       data     extern E:\c18v3.46\pic18-lt\cxx-framework\src\traditional\proc\p18f4520.asm
                    PRODH   0x000ff4       data     extern E:\c18v3.46\pic18-lt\cxx-framework\src\traditional\proc\p18f4520.asm
                    PRODL   0x000ff3       data     extern E:\c18v3.46\pic18-lt\cxx-framework\src\traditional\proc\p18f4520.asm
                  PWM1CON   0x000fb7       data     extern E:\c18v3.46\pic18-lt\cxx-framework\src\traditional\proc\p18f4520.asm
              PWM1CONbits   0x000fb7       data     extern E:\c18v3.46\pic18-lt\cxx-framework\src\traditional\proc\p18f4520.asm
         ParallelPortflag   0x0000b4       data     extern C:\Users\KBV\Desktop\Docus\Automan\Automation Project\Firmware\18F4520 IO card\Peters SSL PCB 18F4520\main_OA_0.9.1.c
                  Q_Frame   0x0000b5       data     extern C:\Users\KBV\Desktop\Docus\Automan\Automation Project\Firmware\18F4520 IO card\Peters SSL PCB 18F4520\main_OA_0.9.1.c
             Q_Frame_Flag   0x0000b6       data     extern C:\Users\KBV\Desktop\Docus\Automan\Automation Project\Firmware\18F4520 IO card\Peters SSL PCB 18F4520\main_OA_0.9.1.c
                     RCON   0x000fd0       data     extern E:\c18v3.46\pic18-lt\cxx-framework\src\traditional\proc\p18f4520.asm
                 RCONbits   0x000fd0       data     extern E:\c18v3.46\pic18-lt\cxx-framework\src\traditional\proc\p18f4520.asm
                    RCREG   0x000fae       data     extern E:\c18v3.46\pic18-lt\cxx-framework\src\traditional\proc\p18f4520.asm
                    RCSTA   0x000fab       data     extern E:\c18v3.46\pic18-lt\cxx-framework\src\traditional\proc\p18f4520.asm
                RCSTAbits   0x000fab       data     extern E:\c18v3.46\pic18-lt\cxx-framework\src\traditional\proc\p18f4520.asm
                     SIGN   0x00006b       data     extern E:\c18v3.46\pic18-lt\cxx-framework\src\traditional\math\cmath18.asm
                    SPBRG   0x000faf       data     extern E:\c18v3.46\pic18-lt\cxx-framework\src\traditional\proc\p18f4520.asm
                   SPBRGH   0x000fb0       data     extern E:\c18v3.46\pic18-lt\cxx-framework\src\traditional\proc\p18f4520.asm
                   SSPADD   0x000fc8       data     extern E:\c18v3.46\pic18-lt\cxx-framework\src\traditional\proc\p18f4520.asm
                   SSPBUF   0x000fc9       data     extern E:\c18v3.46\pic18-lt\cxx-framework\src\traditional\proc\p18f4520.asm
                  SSPCON1   0x000fc6       data     extern E:\c18v3.46\pic18-lt\cxx-framework\src\traditional\proc\p18f4520.asm
              SSPCON1bits   0x000fc6       data     extern E:\c18v3.46\pic18-lt\cxx-framework\src\traditional\proc\p18f4520.asm
                  SSPCON2   0x000fc5       data     extern E:\c18v3.46\pic18-lt\cxx-framework\src\traditional\proc\p18f4520.asm
              SSPCON2bits   0x000fc5       data     extern E:\c18v3.46\pic18-lt\cxx-framework\src\traditional\proc\p18f4520.asm
                  SSPSTAT   0x000fc7       data     extern E:\c18v3.46\pic18-lt\cxx-framework\src\traditional\proc\p18f4520.asm
              SSPSTATbits   0x000fc7       data     extern E:\c18v3.46\pic18-lt\cxx-framework\src\traditional\proc\p18f4520.asm
                   STATUS   0x000fd8       data     extern E:\c18v3.46\pic18-lt\cxx-framework\src\traditional\proc\p18f4520.asm
               STATUSbits   0x000fd8       data     extern E:\c18v3.46\pic18-lt\cxx-framework\src\traditional\proc\p18f4520.asm
                   STKPTR   0x000ffc       data     extern E:\c18v3.46\pic18-lt\cxx-framework\src\traditional\proc\p18f4520.asm
               STKPTRbits   0x000ffc       data     extern E:\c18v3.46\pic18-lt\cxx-framework\src\traditional\proc\p18f4520.asm
             SendFaderIDs   0x0000c0       data     static C:\Users\KBV\Desktop\Docus\Automan\Automation Project\Firmware\18F4520 IO card\Peters SSL PCB 18F4520\main_OA_0.9.1.c
                    T0CON   0x000fd5       data     extern E:\c18v3.46\pic18-lt\cxx-framework\src\traditional\proc\p18f4520.asm
                T0CONbits   0x000fd5       data     extern E:\c18v3.46\pic18-lt\cxx-framework\src\traditional\proc\p18f4520.asm
                    T1CON   0x000fcd       data     extern E:\c18v3.46\pic18-lt\cxx-framework\src\traditional\proc\p18f4520.asm
                T1CONbits   0x000fcd       data     extern E:\c18v3.46\pic18-lt\cxx-framework\src\traditional\proc\p18f4520.asm
                    T2CON   0x000fca       data     extern E:\c18v3.46\pic18-lt\cxx-framework\src\traditional\proc\p18f4520.asm
                T2CONbits   0x000fca       data     extern E:\c18v3.46\pic18-lt\cxx-framework\src\traditional\proc\p18f4520.asm
                    T3CON   0x000fb1       data     extern E:\c18v3.46\pic18-lt\cxx-framework\src\traditional\proc\p18f4520.asm
                T3CONbits   0x000fb1       data     extern E:\c18v3.46\pic18-lt\cxx-framework\src\traditional\proc\p18f4520.asm
                   TABLAT   0x000ff5       data     extern E:\c18v3.46\pic18-lt\cxx-framework\src\traditional\proc\p18f4520.asm
                   TBLPTR   0x000ff6       data     extern E:\c18v3.46\pic18-lt\cxx-framework\src\traditional\proc\p18f4520.asm
                  TBLPTRH   0x000ff7       data     extern E:\c18v3.46\pic18-lt\cxx-framework\src\traditional\proc\p18f4520.asm
                  TBLPTRL   0x000ff6       data     extern E:\c18v3.46\pic18-lt\cxx-framework\src\traditional\proc\p18f4520.asm
                  TBLPTRU   0x000ff8       data     extern E:\c18v3.46\pic18-lt\cxx-framework\src\traditional\proc\p18f4520.asm
                TICK_RATE   0x0000b1       data     extern C:\Users\KBV\Desktop\Docus\Automan\Automation Project\Firmware\18F4520 IO card\Peters SSL PCB 18F4520\main_OA_0.9.1.c
                    TMR0H   0x000fd7       data     extern E:\c18v3.46\pic18-lt\cxx-framework\src\traditional\proc\p18f4520.asm
                    TMR0L   0x000fd6       data     extern E:\c18v3.46\pic18-lt\cxx-framework\src\traditional\proc\p18f4520.asm
                    TMR1H   0x000fcf       data     extern E:\c18v3.46\pic18-lt\cxx-framework\src\traditional\proc\p18f4520.asm
                    TMR1L   0x000fce       data     extern E:\c18v3.46\pic18-lt\cxx-framework\src\traditional\proc\p18f4520.asm
                     TMR2   0x000fcc       data     extern E:\c18v3.46\pic18-lt\cxx-framework\src\traditional\proc\p18f4520.asm
                    TMR3H   0x000fb3       data     extern E:\c18v3.46\pic18-lt\cxx-framework\src\traditional\proc\p18f4520.asm
                    TMR3L   0x000fb2       data     extern E:\c18v3.46\pic18-lt\cxx-framework\src\traditional\proc\p18f4520.asm
                      TOS   0x000ffd       data     extern E:\c18v3.46\pic18-lt\cxx-framework\src\traditional\proc\p18f4520.asm
                     TOSH   0x000ffe       data     extern E:\c18v3.46\pic18-lt\cxx-framework\src\traditional\proc\p18f4520.asm
                     TOSL   0x000ffd       data     extern E:\c18v3.46\pic18-lt\cxx-framework\src\traditional\proc\p18f4520.asm
                     TOSU   0x000fff       data     extern E:\c18v3.46\pic18-lt\cxx-framework\src\traditional\proc\p18f4520.asm
                    TRISA   0x000f92       data     extern E:\c18v3.46\pic18-lt\cxx-framework\src\traditional\proc\p18f4520.asm
                TRISAbits   0x000f92       data     extern E:\c18v3.46\pic18-lt\cxx-framework\src\traditional\proc\p18f4520.asm
                    TRISB   0x000f93       data     extern E:\c18v3.46\pic18-lt\cxx-framework\src\traditional\proc\p18f4520.asm
                TRISBbits   0x000f93       data     extern E:\c18v3.46\pic18-lt\cxx-framework\src\traditional\proc\p18f4520.asm
                    TRISC   0x000f94       data     extern E:\c18v3.46\pic18-lt\cxx-framework\src\traditional\proc\p18f4520.asm
                TRISCbits   0x000f94       data     extern E:\c18v3.46\pic18-lt\cxx-framework\src\traditional\proc\p18f4520.asm
                    TRISD   0x000f95       data     extern E:\c18v3.46\pic18-lt\cxx-framework\src\traditional\proc\p18f4520.asm
                TRISDbits   0x000f95       data     extern E:\c18v3.46\pic18-lt\cxx-framework\src\traditional\proc\p18f4520.asm
                    TRISE   0x000f96       data     extern E:\c18v3.46\pic18-lt\cxx-framework\src\traditional\proc\p18f4520.asm
                TRISEbits   0x000f96       data     extern E:\c18v3.46\pic18-lt\cxx-framework\src\traditional\proc\p18f4520.asm
                    TXREG   0x000fad       data     extern E:\c18v3.46\pic18-lt\cxx-framework\src\traditional\proc\p18f4520.asm
                    TXSTA   0x000fac       data     extern E:\c18v3.46\pic18-lt\cxx-framework\src\traditional\proc\p18f4520.asm
                TXSTAbits   0x000fac       data     extern E:\c18v3.46\pic18-lt\cxx-framework\src\traditional\proc\p18f4520.asm
               Timer_Flag   0x0000b7       data     extern C:\Users\KBV\Desktop\Docus\Automan\Automation Project\Firmware\18F4520 IO card\Peters SSL PCB 18F4520\main_OA_0.9.1.c
                   VCAout   0x000043       data     extern C:\Users\KBV\Desktop\Docus\Automan\Automation Project\Firmware\18F4520 IO card\Peters SSL PCB 18F4520\main_OA_0.9.1.c
                VCAoutOld   0x000053       data     extern C:\Users\KBV\Desktop\Docus\Automan\Automation Project\Firmware\18F4520 IO card\Peters SSL PCB 18F4520\main_OA_0.9.1.c
                        W   0x000fe8       data     extern E:\c18v3.46\pic18-lt\cxx-framework\src\traditional\proc\p18f4520.asm
                   WDTCON   0x000fd1       data     extern E:\c18v3.46\pic18-lt\cxx-framework\src\traditional\proc\p18f4520.asm
               WDTCONbits   0x000fd1       data     extern E:\c18v3.46\pic18-lt\cxx-framework\src\traditional\proc\p18f4520.asm
                     WREG   0x000fe8       data     extern E:\c18v3.46\pic18-lt\cxx-framework\src\traditional\proc\p18f4520.asm
                     Wcnt   0x000093       data     extern C:\Users\KBV\Desktop\Docus\Automan\Automation Project\Firmware\18F4520 IO card\Peters SSL PCB 18F4520\main_OA_0.9.1.c
                __FPFLAGS   0x00006c       data     extern E:\c18v3.46\pic18-lt\cxx-framework\src\traditional\math\cmath18.asm
            __FPFLAGSbits   0x00006c       data     extern E:\c18v3.46\pic18-lt\cxx-framework\src\traditional\math\cmath18.asm
                  __tmp_0   0x000067       data     static C:\Users\KBV\Desktop\Docus\Automan\Automation Project\Firmware\18F4520 IO card\Peters SSL PCB 18F4520\main_OA_0.9.1.c
                  __tmp_1   0x000063       data     static C:\Users\KBV\Desktop\Docus\Automan\Automation Project\Firmware\18F4520 IO card\Peters SSL PCB 18F4520\main_OA_0.9.1.c
                      adc   0x000082       data     extern C:\Users\KBV\Desktop\Docus\Automan\Automation Project\Firmware\18F4520 IO card\Peters SSL PCB 18F4520\main_OA_0.9.1.c
                   adcLSB   0x000085       data     extern C:\Users\KBV\Desktop\Docus\Automan\Automation Project\Firmware\18F4520 IO card\Peters SSL PCB 18F4520\main_OA_0.9.1.c
                   adcMSB   0x000084       data     extern C:\Users\KBV\Desktop\Docus\Automan\Automation Project\Firmware\18F4520 IO card\Peters SSL PCB 18F4520\main_OA_0.9.1.c
                   adcchn   0x0000b0       data     extern C:\Users\KBV\Desktop\Docus\Automan\Automation Project\Firmware\18F4520 IO card\Peters SSL PCB 18F4520\main_OA_0.9.1.c
                 blinkcnt   0x00008b       data     extern C:\Users\KBV\Desktop\Docus\Automan\Automation Project\Firmware\18F4520 IO card\Peters SSL PCB 18F4520\main_OA_0.9.1.c
                 clk_flag   0x0000b3       data     extern C:\Users\KBV\Desktop\Docus\Automan\Automation Project\Firmware\18F4520 IO card\Peters SSL PCB 18F4520\main_OA_0.9.1.c
                  clk_flg   0x0000b2       data     extern C:\Users\KBV\Desktop\Docus\Automan\Automation Project\Firmware\18F4520 IO card\Peters SSL PCB 18F4520\main_OA_0.9.1.c
                      cnt   0x00008f       data     extern C:\Users\KBV\Desktop\Docus\Automan\Automation Project\Firmware\18F4520 IO card\Peters SSL PCB 18F4520\main_OA_0.9.1.c
                     cnt1   0x00009b       data     extern C:\Users\KBV\Desktop\Docus\Automan\Automation Project\Firmware\18F4520 IO card\Peters SSL PCB 18F4520\main_OA_0.9.1.c
                     cnt2   0x00009f       data     extern C:\Users\KBV\Desktop\Docus\Automan\Automation Project\Firmware\18F4520 IO card\Peters SSL PCB 18F4520\main_OA_0.9.1.c
                     cnt3   0x0000a3       data     extern C:\Users\KBV\Desktop\Docus\Automan\Automation Project\Firmware\18F4520 IO card\Peters SSL PCB 18F4520\main_OA_0.9.1.c
                curr_byte   0x0000cd       data     static E:\c18v3.46\pic18-lt\cxx-framework\src\traditional\startup\c018i.c
               curr_entry   0x0000cf       data     static E:\c18v3.46\pic18-lt\cxx-framework\src\traditional\startup\c018i.c
                 data_ptr   0x0000d1       data     static E:\c18v3.46\pic18-lt\cxx-framework\src\traditional\startup\c018i.c
                    error   0x000086       data     extern C:\Users\KBV\Desktop\Docus\Automan\Automation Project\Firmware\18F4520 IO card\Peters SSL PCB 18F4520\main_OA_0.9.1.c
                fakeChnNo   0x0000bd       data     static C:\Users\KBV\Desktop\Docus\Automan\Automation Project\Firmware\18F4520 IO card\Peters SSL PCB 18F4520\main_OA_0.9.1.c
                  fakeCnt   0x0000be       data     static C:\Users\KBV\Desktop\Docus\Automan\Automation Project\Firmware\18F4520 IO card\Peters SSL PCB 18F4520\main_OA_0.9.1.c
             handshakeTmr   0x0000bb       data     static C:\Users\KBV\Desktop\Docus\Automan\Automation Project\Firmware\18F4520 IO card\Peters SSL PCB 18F4520\main_OA_0.9.1.c
      hardwareReportState   0x0000af       data     extern C:\Users\KBV\Desktop\Docus\Automan\Automation Project\Firmware\18F4520 IO card\Peters SSL PCB 18F4520\main_OA_0.9.1.c
                     prom   0x0000ca       data     static E:\c18v3.46\pic18-lt\cxx-framework\src\traditional\startup\c018i.c
                shiftData   0x000000       data     extern C:\Users\KBV\Desktop\Docus\Automan\Automation Project\Firmware\18F4520 IO card\Peters SSL PCB 18F4520\main_OA_0.9.1.c
              status_bits   0x000080       data     extern C:\Users\KBV\Desktop\Docus\Automan\Automation Project\Firmware\18F4520 IO card\Peters SSL PCB 18F4520\main_OA_0.9.1.c
              tempOUTdata   0x000033       data     extern C:\Users\KBV\Desktop\Docus\Automan\Automation Project\Firmware\18F4520 IO card\Peters SSL PCB 18F4520\main_OA_0.9.1.c
                   testCV   0x0000ad       data     extern C:\Users\KBV\Desktop\Docus\Automan\Automation Project\Firmware\18F4520 IO card\Peters SSL PCB 18F4520\main_OA_0.9.1.c
                  testDAC   0x0000b9       data     static C:\Users\KBV\Desktop\Docus\Automan\Automation Project\Firmware\18F4520 IO card\Peters SSL PCB 18F4520\main_OA_0.9.1.c
                    wCntr   0x000097       data     extern C:\Users\KBV\Desktop\Docus\Automan\Automation Project\Firmware\18F4520 IO card\Peters SSL PCB 18F4520\main_OA_0.9.1.c
                  waveAdd   0x0000c3       data     static C:\Users\KBV\Desktop\Docus\Automan\Automation Project\Firmware\18F4520 IO card\Peters SSL PCB 18F4520\main_OA_0.9.1.c
                   waveCV   0x0000c1       data     static C:\Users\KBV\Desktop\Docus\Automan\Automation Project\Firmware\18F4520 IO card\Peters SSL PCB 18F4520\main_OA_0.9.1.c



                              Symbols - Sorted by Address
                     Name    Address   Location    Storage File                     
                ---------  ---------  ---------  --------- ---------                
                   _entry   0x000000    program     extern E:\c18v3.46\pic18-lt\cxx-framework\src\traditional\startup\c018i.c
       ___return_lbl00000   0x000004    program     static                          
  YourHighPriorityISRCode   0x000014    program     extern C:\Users\KBV\Desktop\Docus\Automan\Automation Project\Firmware\18F4520 IO card\Peters SSL PCB 18F4520\main_OA_0.9.1.c
   YourLowPriorityISRCode   0x00015e    program     extern C:\Users\KBV\Desktop\Docus\Automan\Automation Project\Firmware\18F4520 IO card\Peters SSL PCB 18F4520\main_OA_0.9.1.c
                     Init   0x000184    program     extern C:\Users\KBV\Desktop\Docus\Automan\Automation Project\Firmware\18F4520 IO card\Peters SSL PCB 18F4520\main_OA_0.9.1.c
                     main   0x00027c    program     extern C:\Users\KBV\Desktop\Docus\Automan\Automation Project\Firmware\18F4520 IO card\Peters SSL PCB 18F4520\main_OA_0.9.1.c
             Motor_Faders   0x000424    program     extern C:\Users\KBV\Desktop\Docus\Automan\Automation Project\Firmware\18F4520 IO card\Peters SSL PCB 18F4520\main_OA_0.9.1.c
                Set_Mutes   0x0006a6    program     extern C:\Users\KBV\Desktop\Docus\Automan\Automation Project\Firmware\18F4520 IO card\Peters SSL PCB 18F4520\main_OA_0.9.1.c
                 Set_Leds   0x0006a8    program     extern C:\Users\KBV\Desktop\Docus\Automan\Automation Project\Firmware\18F4520 IO card\Peters SSL PCB 18F4520\main_OA_0.9.1.c
            Read_Switches   0x0006aa    program     extern C:\Users\KBV\Desktop\Docus\Automan\Automation Project\Firmware\18F4520 IO card\Peters SSL PCB 18F4520\main_OA_0.9.1.c
                LEDaction   0x0006ac    program     extern C:\Users\KBV\Desktop\Docus\Automan\Automation Project\Firmware\18F4520 IO card\Peters SSL PCB 18F4520\main_OA_0.9.1.c
                _do_cinit   0x00071c    program     extern E:\c18v3.46\pic18-lt\cxx-framework\src\traditional\startup\c018i.c
                     test   0x000736    program     static                          
                copy_loop   0x00078e    program     static                          
            copy_one_byte   0x000794    program     static                          
             done_copying   0x0007a2    program     static                          
       ___return_lbl00002   0x0007b8    program     static                          
                     done   0x0007b8    program     static                          
               OpenTimer0   0x0007ba    program     extern E:\c18v3.46\pic18-lt\cxx-framework\src\pmc_common\Timers\t0open.c
            __zero_memory   0x0007f2    program     extern E:\c18v3.46\pic18-lt\cxx-framework\src\traditional\proc\p18f4520.asm
                   loop_h   0x000800    program     static E:\c18v3.46\pic18-lt\cxx-framework\src\traditional\proc\p18f4520.asm
               zero_block   0x000800    program     static E:\c18v3.46\pic18-lt\cxx-framework\src\traditional\proc\p18f4520.asm
                compare_l   0x000808    program     static E:\c18v3.46\pic18-lt\cxx-framework\src\traditional\proc\p18f4520.asm
                   loop_l   0x00080a    program     static E:\c18v3.46\pic18-lt\cxx-framework\src\traditional\proc\p18f4520.asm
                 _startup   0x000812    program     extern E:\c18v3.46\pic18-lt\cxx-framework\src\traditional\startup\c018i.c
                     loop   0x000822    program     static                          
       ___return_lbl00001   0x00082c    program     static                          
                   __init   0x00082e    program     extern E:\c18v3.46\pic18-lt\cxx-framework\src\traditional\stdclib\__init.c
                shiftData   0x000000       data     extern C:\Users\KBV\Desktop\Docus\Automan\Automation Project\Firmware\18F4520 IO card\Peters SSL PCB 18F4520\main_OA_0.9.1.c
                   INdata   0x000003       data     extern C:\Users\KBV\Desktop\Docus\Automan\Automation Project\Firmware\18F4520 IO card\Peters SSL PCB 18F4520\main_OA_0.9.1.c
                 INbuffer   0x000013       data     extern C:\Users\KBV\Desktop\Docus\Automan\Automation Project\Firmware\18F4520 IO card\Peters SSL PCB 18F4520\main_OA_0.9.1.c
                  OUTdata   0x000023       data     extern C:\Users\KBV\Desktop\Docus\Automan\Automation Project\Firmware\18F4520 IO card\Peters SSL PCB 18F4520\main_OA_0.9.1.c
              tempOUTdata   0x000033       data     extern C:\Users\KBV\Desktop\Docus\Automan\Automation Project\Firmware\18F4520 IO card\Peters SSL PCB 18F4520\main_OA_0.9.1.c
                   VCAout   0x000043       data     extern C:\Users\KBV\Desktop\Docus\Automan\Automation Project\Firmware\18F4520 IO card\Peters SSL PCB 18F4520\main_OA_0.9.1.c
                VCAoutOld   0x000053       data     extern C:\Users\KBV\Desktop\Docus\Automan\Automation Project\Firmware\18F4520 IO card\Peters SSL PCB 18F4520\main_OA_0.9.1.c
                  __tmp_1   0x000063       data     static C:\Users\KBV\Desktop\Docus\Automan\Automation Project\Firmware\18F4520 IO card\Peters SSL PCB 18F4520\main_OA_0.9.1.c
                  __tmp_0   0x000067       data     static C:\Users\KBV\Desktop\Docus\Automan\Automation Project\Firmware\18F4520 IO card\Peters SSL PCB 18F4520\main_OA_0.9.1.c
                     SIGN   0x00006b       data     extern E:\c18v3.46\pic18-lt\cxx-framework\src\traditional\math\cmath18.asm
            __FPFLAGSbits   0x00006c       data     extern E:\c18v3.46\pic18-lt\cxx-framework\src\traditional\math\cmath18.asm
                __FPFLAGS   0x00006c       data     extern E:\c18v3.46\pic18-lt\cxx-framework\src\traditional\math\cmath18.asm
              status_bits   0x000080       data     extern C:\Users\KBV\Desktop\Docus\Automan\Automation Project\Firmware\18F4520 IO card\Peters SSL PCB 18F4520\main_OA_0.9.1.c
                      adc   0x000082       data     extern C:\Users\KBV\Desktop\Docus\Automan\Automation Project\Firmware\18F4520 IO card\Peters SSL PCB 18F4520\main_OA_0.9.1.c
                   adcMSB   0x000084       data     extern C:\Users\KBV\Desktop\Docus\Automan\Automation Project\Firmware\18F4520 IO card\Peters SSL PCB 18F4520\main_OA_0.9.1.c
                   adcLSB   0x000085       data     extern C:\Users\KBV\Desktop\Docus\Automan\Automation Project\Firmware\18F4520 IO card\Peters SSL PCB 18F4520\main_OA_0.9.1.c
                    error   0x000086       data     extern C:\Users\KBV\Desktop\Docus\Automan\Automation Project\Firmware\18F4520 IO card\Peters SSL PCB 18F4520\main_OA_0.9.1.c
                   Ltimer   0x000087       data     extern C:\Users\KBV\Desktop\Docus\Automan\Automation Project\Firmware\18F4520 IO card\Peters SSL PCB 18F4520\main_OA_0.9.1.c
                 blinkcnt   0x00008b       data     extern C:\Users\KBV\Desktop\Docus\Automan\Automation Project\Firmware\18F4520 IO card\Peters SSL PCB 18F4520\main_OA_0.9.1.c
                      cnt   0x00008f       data     extern C:\Users\KBV\Desktop\Docus\Automan\Automation Project\Firmware\18F4520 IO card\Peters SSL PCB 18F4520\main_OA_0.9.1.c
                     Wcnt   0x000093       data     extern C:\Users\KBV\Desktop\Docus\Automan\Automation Project\Firmware\18F4520 IO card\Peters SSL PCB 18F4520\main_OA_0.9.1.c
                    wCntr   0x000097       data     extern C:\Users\KBV\Desktop\Docus\Automan\Automation Project\Firmware\18F4520 IO card\Peters SSL PCB 18F4520\main_OA_0.9.1.c
                     cnt1   0x00009b       data     extern C:\Users\KBV\Desktop\Docus\Automan\Automation Project\Firmware\18F4520 IO card\Peters SSL PCB 18F4520\main_OA_0.9.1.c
                     cnt2   0x00009f       data     extern C:\Users\KBV\Desktop\Docus\Automan\Automation Project\Firmware\18F4520 IO card\Peters SSL PCB 18F4520\main_OA_0.9.1.c
                     cnt3   0x0000a3       data     extern C:\Users\KBV\Desktop\Docus\Automan\Automation Project\Firmware\18F4520 IO card\Peters SSL PCB 18F4520\main_OA_0.9.1.c
              MFtimerTick   0x0000a7       data     extern C:\Users\KBV\Desktop\Docus\Automan\Automation Project\Firmware\18F4520 IO card\Peters SSL PCB 18F4520\main_OA_0.9.1.c
                HANDSHAKE   0x0000a8       data     extern C:\Users\KBV\Desktop\Docus\Automan\Automation Project\Firmware\18F4520 IO card\Peters SSL PCB 18F4520\main_OA_0.9.1.c
                 BlinkCnt   0x0000a9       data     extern C:\Users\KBV\Desktop\Docus\Automan\Automation Project\Firmware\18F4520 IO card\Peters SSL PCB 18F4520\main_OA_0.9.1.c
                 BlinkLED   0x0000ab       data     extern C:\Users\KBV\Desktop\Docus\Automan\Automation Project\Firmware\18F4520 IO card\Peters SSL PCB 18F4520\main_OA_0.9.1.c
                LEDtoggle   0x0000ac       data     extern C:\Users\KBV\Desktop\Docus\Automan\Automation Project\Firmware\18F4520 IO card\Peters SSL PCB 18F4520\main_OA_0.9.1.c
                   testCV   0x0000ad       data     extern C:\Users\KBV\Desktop\Docus\Automan\Automation Project\Firmware\18F4520 IO card\Peters SSL PCB 18F4520\main_OA_0.9.1.c
      hardwareReportState   0x0000af       data     extern C:\Users\KBV\Desktop\Docus\Automan\Automation Project\Firmware\18F4520 IO card\Peters SSL PCB 18F4520\main_OA_0.9.1.c
                   adcchn   0x0000b0       data     extern C:\Users\KBV\Desktop\Docus\Automan\Automation Project\Firmware\18F4520 IO card\Peters SSL PCB 18F4520\main_OA_0.9.1.c
                TICK_RATE   0x0000b1       data     extern C:\Users\KBV\Desktop\Docus\Automan\Automation Project\Firmware\18F4520 IO card\Peters SSL PCB 18F4520\main_OA_0.9.1.c
                  clk_flg   0x0000b2       data     extern C:\Users\KBV\Desktop\Docus\Automan\Automation Project\Firmware\18F4520 IO card\Peters SSL PCB 18F4520\main_OA_0.9.1.c
                 clk_flag   0x0000b3       data     extern C:\Users\KBV\Desktop\Docus\Automan\Automation Project\Firmware\18F4520 IO card\Peters SSL PCB 18F4520\main_OA_0.9.1.c
         ParallelPortflag   0x0000b4       data     extern C:\Users\KBV\Desktop\Docus\Automan\Automation Project\Firmware\18F4520 IO card\Peters SSL PCB 18F4520\main_OA_0.9.1.c
                  Q_Frame   0x0000b5       data     extern C:\Users\KBV\Desktop\Docus\Automan\Automation Project\Firmware\18F4520 IO card\Peters SSL PCB 18F4520\main_OA_0.9.1.c
             Q_Frame_Flag   0x0000b6       data     extern C:\Users\KBV\Desktop\Docus\Automan\Automation Project\Firmware\18F4520 IO card\Peters SSL PCB 18F4520\main_OA_0.9.1.c
               Timer_Flag   0x0000b7       data     extern C:\Users\KBV\Desktop\Docus\Automan\Automation Project\Firmware\18F4520 IO card\Peters SSL PCB 18F4520\main_OA_0.9.1.c
                  MFtimer   0x0000b8       data     extern C:\Users\KBV\Desktop\Docus\Automan\Automation Project\Firmware\18F4520 IO card\Peters SSL PCB 18F4520\main_OA_0.9.1.c
                  testDAC   0x0000b9       data     static C:\Users\KBV\Desktop\Docus\Automan\Automation Project\Firmware\18F4520 IO card\Peters SSL PCB 18F4520\main_OA_0.9.1.c
             handshakeTmr   0x0000bb       data     static C:\Users\KBV\Desktop\Docus\Automan\Automation Project\Firmware\18F4520 IO card\Peters SSL PCB 18F4520\main_OA_0.9.1.c
                fakeChnNo   0x0000bd       data     static C:\Users\KBV\Desktop\Docus\Automan\Automation Project\Firmware\18F4520 IO card\Peters SSL PCB 18F4520\main_OA_0.9.1.c
                  fakeCnt   0x0000be       data     static C:\Users\KBV\Desktop\Docus\Automan\Automation Project\Firmware\18F4520 IO card\Peters SSL PCB 18F4520\main_OA_0.9.1.c
             SendFaderIDs   0x0000c0       data     static C:\Users\KBV\Desktop\Docus\Automan\Automation Project\Firmware\18F4520 IO card\Peters SSL PCB 18F4520\main_OA_0.9.1.c
                   waveCV   0x0000c1       data     static C:\Users\KBV\Desktop\Docus\Automan\Automation Project\Firmware\18F4520 IO card\Peters SSL PCB 18F4520\main_OA_0.9.1.c
                  waveAdd   0x0000c3       data     static C:\Users\KBV\Desktop\Docus\Automan\Automation Project\Firmware\18F4520 IO card\Peters SSL PCB 18F4520\main_OA_0.9.1.c
                  LEDcntr   0x0000c4       data     static C:\Users\KBV\Desktop\Docus\Automan\Automation Project\Firmware\18F4520 IO card\Peters SSL PCB 18F4520\main_OA_0.9.1.c
                   LEDdim   0x0000c6       data     static C:\Users\KBV\Desktop\Docus\Automan\Automation Project\Firmware\18F4520 IO card\Peters SSL PCB 18F4520\main_OA_0.9.1.c
                 LEDcntr2   0x0000c8       data     static C:\Users\KBV\Desktop\Docus\Automan\Automation Project\Firmware\18F4520 IO card\Peters SSL PCB 18F4520\main_OA_0.9.1.c
                     prom   0x0000ca       data     static E:\c18v3.46\pic18-lt\cxx-framework\src\traditional\startup\c018i.c
                curr_byte   0x0000cd       data     static E:\c18v3.46\pic18-lt\cxx-framework\src\traditional\startup\c018i.c
               curr_entry   0x0000cf       data     static E:\c18v3.46\pic18-lt\cxx-framework\src\traditional\startup\c018i.c
                 data_ptr   0x0000d1       data     static E:\c18v3.46\pic18-lt\cxx-framework\src\traditional\startup\c018i.c
                PORTAbits   0x000f80       data     extern E:\c18v3.46\pic18-lt\cxx-framework\src\traditional\proc\p18f4520.asm
                    PORTA   0x000f80       data     extern E:\c18v3.46\pic18-lt\cxx-framework\src\traditional\proc\p18f4520.asm
                    PORTB   0x000f81       data     extern E:\c18v3.46\pic18-lt\cxx-framework\src\traditional\proc\p18f4520.asm
                PORTBbits   0x000f81       data     extern E:\c18v3.46\pic18-lt\cxx-framework\src\traditional\proc\p18f4520.asm
                    PORTC   0x000f82       data     extern E:\c18v3.46\pic18-lt\cxx-framework\src\traditional\proc\p18f4520.asm
                PORTCbits   0x000f82       data     extern E:\c18v3.46\pic18-lt\cxx-framework\src\traditional\proc\p18f4520.asm
                    PORTD   0x000f83       data     extern E:\c18v3.46\pic18-lt\cxx-framework\src\traditional\proc\p18f4520.asm
                PORTDbits   0x000f83       data     extern E:\c18v3.46\pic18-lt\cxx-framework\src\traditional\proc\p18f4520.asm
                    PORTE   0x000f84       data     extern E:\c18v3.46\pic18-lt\cxx-framework\src\traditional\proc\p18f4520.asm
                PORTEbits   0x000f84       data     extern E:\c18v3.46\pic18-lt\cxx-framework\src\traditional\proc\p18f4520.asm
                 LATAbits   0x000f89       data     extern E:\c18v3.46\pic18-lt\cxx-framework\src\traditional\proc\p18f4520.asm
                     LATA   0x000f89       data     extern E:\c18v3.46\pic18-lt\cxx-framework\src\traditional\proc\p18f4520.asm
                     LATB   0x000f8a       data     extern E:\c18v3.46\pic18-lt\cxx-framework\src\traditional\proc\p18f4520.asm
                 LATBbits   0x000f8a       data     extern E:\c18v3.46\pic18-lt\cxx-framework\src\traditional\proc\p18f4520.asm
                     LATC   0x000f8b       data     extern E:\c18v3.46\pic18-lt\cxx-framework\src\traditional\proc\p18f4520.asm
                 LATCbits   0x000f8b       data     extern E:\c18v3.46\pic18-lt\cxx-framework\src\traditional\proc\p18f4520.asm
                     LATD   0x000f8c       data     extern E:\c18v3.46\pic18-lt\cxx-framework\src\traditional\proc\p18f4520.asm
                 LATDbits   0x000f8c       data     extern E:\c18v3.46\pic18-lt\cxx-framework\src\traditional\proc\p18f4520.asm
                     LATE   0x000f8d       data     extern E:\c18v3.46\pic18-lt\cxx-framework\src\traditional\proc\p18f4520.asm
                 LATEbits   0x000f8d       data     extern E:\c18v3.46\pic18-lt\cxx-framework\src\traditional\proc\p18f4520.asm
                     DDRA   0x000f92       data     extern E:\c18v3.46\pic18-lt\cxx-framework\src\traditional\proc\p18f4520.asm
                TRISAbits   0x000f92       data     extern E:\c18v3.46\pic18-lt\cxx-framework\src\traditional\proc\p18f4520.asm
                    TRISA   0x000f92       data     extern E:\c18v3.46\pic18-lt\cxx-framework\src\traditional\proc\p18f4520.asm
                 DDRAbits   0x000f92       data     extern E:\c18v3.46\pic18-lt\cxx-framework\src\traditional\proc\p18f4520.asm
                 DDRBbits   0x000f93       data     extern E:\c18v3.46\pic18-lt\cxx-framework\src\traditional\proc\p18f4520.asm
                     DDRB   0x000f93       data     extern E:\c18v3.46\pic18-lt\cxx-framework\src\traditional\proc\p18f4520.asm
                TRISBbits   0x000f93       data     extern E:\c18v3.46\pic18-lt\cxx-framework\src\traditional\proc\p18f4520.asm
                    TRISB   0x000f93       data     extern E:\c18v3.46\pic18-lt\cxx-framework\src\traditional\proc\p18f4520.asm
                     DDRC   0x000f94       data     extern E:\c18v3.46\pic18-lt\cxx-framework\src\traditional\proc\p18f4520.asm
                 DDRCbits   0x000f94       data     extern E:\c18v3.46\pic18-lt\cxx-framework\src\traditional\proc\p18f4520.asm
                TRISCbits   0x000f94       data     extern E:\c18v3.46\pic18-lt\cxx-framework\src\traditional\proc\p18f4520.asm
                    TRISC   0x000f94       data     extern E:\c18v3.46\pic18-lt\cxx-framework\src\traditional\proc\p18f4520.asm
                 DDRDbits   0x000f95       data     extern E:\c18v3.46\pic18-lt\cxx-framework\src\traditional\proc\p18f4520.asm
                TRISDbits   0x000f95       data     extern E:\c18v3.46\pic18-lt\cxx-framework\src\traditional\proc\p18f4520.asm
                    TRISD   0x000f95       data     extern E:\c18v3.46\pic18-lt\cxx-framework\src\traditional\proc\p18f4520.asm
                     DDRD   0x000f95       data     extern E:\c18v3.46\pic18-lt\cxx-framework\src\traditional\proc\p18f4520.asm
                    TRISE   0x000f96       data     extern E:\c18v3.46\pic18-lt\cxx-framework\src\traditional\proc\p18f4520.asm
                TRISEbits   0x000f96       data     extern E:\c18v3.46\pic18-lt\cxx-framework\src\traditional\proc\p18f4520.asm
                     DDRE   0x000f96       data     extern E:\c18v3.46\pic18-lt\cxx-framework\src\traditional\proc\p18f4520.asm
                 DDREbits   0x000f96       data     extern E:\c18v3.46\pic18-lt\cxx-framework\src\traditional\proc\p18f4520.asm
              OSCTUNEbits   0x000f9b       data     extern E:\c18v3.46\pic18-lt\cxx-framework\src\traditional\proc\p18f4520.asm
                  OSCTUNE   0x000f9b       data     extern E:\c18v3.46\pic18-lt\cxx-framework\src\traditional\proc\p18f4520.asm
                 PIE1bits   0x000f9d       data     extern E:\c18v3.46\pic18-lt\cxx-framework\src\traditional\proc\p18f4520.asm
                     PIE1   0x000f9d       data     extern E:\c18v3.46\pic18-lt\cxx-framework\src\traditional\proc\p18f4520.asm
                     PIR1   0x000f9e       data     extern E:\c18v3.46\pic18-lt\cxx-framework\src\traditional\proc\p18f4520.asm
                 PIR1bits   0x000f9e       data     extern E:\c18v3.46\pic18-lt\cxx-framework\src\traditional\proc\p18f4520.asm
                     IPR1   0x000f9f       data     extern E:\c18v3.46\pic18-lt\cxx-framework\src\traditional\proc\p18f4520.asm
                 IPR1bits   0x000f9f       data     extern E:\c18v3.46\pic18-lt\cxx-framework\src\traditional\proc\p18f4520.asm
                     PIE2   0x000fa0       data     extern E:\c18v3.46\pic18-lt\cxx-framework\src\traditional\proc\p18f4520.asm
                 PIE2bits   0x000fa0       data     extern E:\c18v3.46\pic18-lt\cxx-framework\src\traditional\proc\p18f4520.asm
                 PIR2bits   0x000fa1       data     extern E:\c18v3.46\pic18-lt\cxx-framework\src\traditional\proc\p18f4520.asm
                     PIR2   0x000fa1       data     extern E:\c18v3.46\pic18-lt\cxx-framework\src\traditional\proc\p18f4520.asm
                     IPR2   0x000fa2       data     extern E:\c18v3.46\pic18-lt\cxx-framework\src\traditional\proc\p18f4520.asm
                 IPR2bits   0x000fa2       data     extern E:\c18v3.46\pic18-lt\cxx-framework\src\traditional\proc\p18f4520.asm
                   EECON1   0x000fa6       data     extern E:\c18v3.46\pic18-lt\cxx-framework\src\traditional\proc\p18f4520.asm
               EECON1bits   0x000fa6       data     extern E:\c18v3.46\pic18-lt\cxx-framework\src\traditional\proc\p18f4520.asm
                   EECON2   0x000fa7       data     extern E:\c18v3.46\pic18-lt\cxx-framework\src\traditional\proc\p18f4520.asm
                   EEDATA   0x000fa8       data     extern E:\c18v3.46\pic18-lt\cxx-framework\src\traditional\proc\p18f4520.asm
                    EEADR   0x000fa9       data     extern E:\c18v3.46\pic18-lt\cxx-framework\src\traditional\proc\p18f4520.asm
                    RCSTA   0x000fab       data     extern E:\c18v3.46\pic18-lt\cxx-framework\src\traditional\proc\p18f4520.asm
                RCSTAbits   0x000fab       data     extern E:\c18v3.46\pic18-lt\cxx-framework\src\traditional\proc\p18f4520.asm
                    TXSTA   0x000fac       data     extern E:\c18v3.46\pic18-lt\cxx-framework\src\traditional\proc\p18f4520.asm
                TXSTAbits   0x000fac       data     extern E:\c18v3.46\pic18-lt\cxx-framework\src\traditional\proc\p18f4520.asm
                    TXREG   0x000fad       data     extern E:\c18v3.46\pic18-lt\cxx-framework\src\traditional\proc\p18f4520.asm
                    RCREG   0x000fae       data     extern E:\c18v3.46\pic18-lt\cxx-framework\src\traditional\proc\p18f4520.asm
                    SPBRG   0x000faf       data     extern E:\c18v3.46\pic18-lt\cxx-framework\src\traditional\proc\p18f4520.asm
                   SPBRGH   0x000fb0       data     extern E:\c18v3.46\pic18-lt\cxx-framework\src\traditional\proc\p18f4520.asm
                    T3CON   0x000fb1       data     extern E:\c18v3.46\pic18-lt\cxx-framework\src\traditional\proc\p18f4520.asm
                T3CONbits   0x000fb1       data     extern E:\c18v3.46\pic18-lt\cxx-framework\src\traditional\proc\p18f4520.asm
                    TMR3L   0x000fb2       data     extern E:\c18v3.46\pic18-lt\cxx-framework\src\traditional\proc\p18f4520.asm
                    TMR3H   0x000fb3       data     extern E:\c18v3.46\pic18-lt\cxx-framework\src\traditional\proc\p18f4520.asm
                CMCONbits   0x000fb4       data     extern E:\c18v3.46\pic18-lt\cxx-framework\src\traditional\proc\p18f4520.asm
                    CMCON   0x000fb4       data     extern E:\c18v3.46\pic18-lt\cxx-framework\src\traditional\proc\p18f4520.asm
               CVRCONbits   0x000fb5       data     extern E:\c18v3.46\pic18-lt\cxx-framework\src\traditional\proc\p18f4520.asm
                   CVRCON   0x000fb5       data     extern E:\c18v3.46\pic18-lt\cxx-framework\src\traditional\proc\p18f4520.asm
              ECCP1ASbits   0x000fb6       data     extern E:\c18v3.46\pic18-lt\cxx-framework\src\traditional\proc\p18f4520.asm
                   ECCPAS   0x000fb6       data     extern E:\c18v3.46\pic18-lt\cxx-framework\src\traditional\proc\p18f4520.asm
               ECCPASbits   0x000fb6       data     extern E:\c18v3.46\pic18-lt\cxx-framework\src\traditional\proc\p18f4520.asm
                  ECCP1AS   0x000fb6       data     extern E:\c18v3.46\pic18-lt\cxx-framework\src\traditional\proc\p18f4520.asm
                 ECCP1DEL   0x000fb7       data     extern E:\c18v3.46\pic18-lt\cxx-framework\src\traditional\proc\p18f4520.asm
             ECCP1DELbits   0x000fb7       data     extern E:\c18v3.46\pic18-lt\cxx-framework\src\traditional\proc\p18f4520.asm
              PWM1CONbits   0x000fb7       data     extern E:\c18v3.46\pic18-lt\cxx-framework\src\traditional\proc\p18f4520.asm
                  PWM1CON   0x000fb7       data     extern E:\c18v3.46\pic18-lt\cxx-framework\src\traditional\proc\p18f4520.asm
                  BAUDCON   0x000fb8       data     extern E:\c18v3.46\pic18-lt\cxx-framework\src\traditional\proc\p18f4520.asm
              BAUDCONbits   0x000fb8       data     extern E:\c18v3.46\pic18-lt\cxx-framework\src\traditional\proc\p18f4520.asm
                  BAUDCTL   0x000fb8       data     extern E:\c18v3.46\pic18-lt\cxx-framework\src\traditional\proc\p18f4520.asm
              BAUDCTLbits   0x000fb8       data     extern E:\c18v3.46\pic18-lt\cxx-framework\src\traditional\proc\p18f4520.asm
                  CCP2CON   0x000fba       data     extern E:\c18v3.46\pic18-lt\cxx-framework\src\traditional\proc\p18f4520.asm
              CCP2CONbits   0x000fba       data     extern E:\c18v3.46\pic18-lt\cxx-framework\src\traditional\proc\p18f4520.asm
                    CCPR2   0x000fbb       data     extern E:\c18v3.46\pic18-lt\cxx-framework\src\traditional\proc\p18f4520.asm
                   CCPR2L   0x000fbb       data     extern E:\c18v3.46\pic18-lt\cxx-framework\src\traditional\proc\p18f4520.asm
                   CCPR2H   0x000fbc       data     extern E:\c18v3.46\pic18-lt\cxx-framework\src\traditional\proc\p18f4520.asm
                  CCP1CON   0x000fbd       data     extern E:\c18v3.46\pic18-lt\cxx-framework\src\traditional\proc\p18f4520.asm
              CCP1CONbits   0x000fbd       data     extern E:\c18v3.46\pic18-lt\cxx-framework\src\traditional\proc\p18f4520.asm
                    CCPR1   0x000fbe       data     extern E:\c18v3.46\pic18-lt\cxx-framework\src\traditional\proc\p18f4520.asm
                   CCPR1L   0x000fbe       data     extern E:\c18v3.46\pic18-lt\cxx-framework\src\traditional\proc\p18f4520.asm
                   CCPR1H   0x000fbf       data     extern E:\c18v3.46\pic18-lt\cxx-framework\src\traditional\proc\p18f4520.asm
                   ADCON2   0x000fc0       data     extern E:\c18v3.46\pic18-lt\cxx-framework\src\traditional\proc\p18f4520.asm
               ADCON2bits   0x000fc0       data     extern E:\c18v3.46\pic18-lt\cxx-framework\src\traditional\proc\p18f4520.asm
                   ADCON1   0x000fc1       data     extern E:\c18v3.46\pic18-lt\cxx-framework\src\traditional\proc\p18f4520.asm
               ADCON1bits   0x000fc1       data     extern E:\c18v3.46\pic18-lt\cxx-framework\src\traditional\proc\p18f4520.asm
               ADCON0bits   0x000fc2       data     extern E:\c18v3.46\pic18-lt\cxx-framework\src\traditional\proc\p18f4520.asm
                   ADCON0   0x000fc2       data     extern E:\c18v3.46\pic18-lt\cxx-framework\src\traditional\proc\p18f4520.asm
                    ADRES   0x000fc3       data     extern E:\c18v3.46\pic18-lt\cxx-framework\src\traditional\proc\p18f4520.asm
                   ADRESL   0x000fc3       data     extern E:\c18v3.46\pic18-lt\cxx-framework\src\traditional\proc\p18f4520.asm
                   ADRESH   0x000fc4       data     extern E:\c18v3.46\pic18-lt\cxx-framework\src\traditional\proc\p18f4520.asm
              SSPCON2bits   0x000fc5       data     extern E:\c18v3.46\pic18-lt\cxx-framework\src\traditional\proc\p18f4520.asm
                  SSPCON2   0x000fc5       data     extern E:\c18v3.46\pic18-lt\cxx-framework\src\traditional\proc\p18f4520.asm
                  SSPCON1   0x000fc6       data     extern E:\c18v3.46\pic18-lt\cxx-framework\src\traditional\proc\p18f4520.asm
              SSPCON1bits   0x000fc6       data     extern E:\c18v3.46\pic18-lt\cxx-framework\src\traditional\proc\p18f4520.asm
                  SSPSTAT   0x000fc7       data     extern E:\c18v3.46\pic18-lt\cxx-framework\src\traditional\proc\p18f4520.asm
              SSPSTATbits   0x000fc7       data     extern E:\c18v3.46\pic18-lt\cxx-framework\src\traditional\proc\p18f4520.asm
                   SSPADD   0x000fc8       data     extern E:\c18v3.46\pic18-lt\cxx-framework\src\traditional\proc\p18f4520.asm
                   SSPBUF   0x000fc9       data     extern E:\c18v3.46\pic18-lt\cxx-framework\src\traditional\proc\p18f4520.asm
                T2CONbits   0x000fca       data     extern E:\c18v3.46\pic18-lt\cxx-framework\src\traditional\proc\p18f4520.asm
                    T2CON   0x000fca       data     extern E:\c18v3.46\pic18-lt\cxx-framework\src\traditional\proc\p18f4520.asm
                      PR2   0x000fcb       data     extern E:\c18v3.46\pic18-lt\cxx-framework\src\traditional\proc\p18f4520.asm
                     TMR2   0x000fcc       data     extern E:\c18v3.46\pic18-lt\cxx-framework\src\traditional\proc\p18f4520.asm
                T1CONbits   0x000fcd       data     extern E:\c18v3.46\pic18-lt\cxx-framework\src\traditional\proc\p18f4520.asm
                    T1CON   0x000fcd       data     extern E:\c18v3.46\pic18-lt\cxx-framework\src\traditional\proc\p18f4520.asm
                    TMR1L   0x000fce       data     extern E:\c18v3.46\pic18-lt\cxx-framework\src\traditional\proc\p18f4520.asm
                    TMR1H   0x000fcf       data     extern E:\c18v3.46\pic18-lt\cxx-framework\src\traditional\proc\p18f4520.asm
                     RCON   0x000fd0       data     extern E:\c18v3.46\pic18-lt\cxx-framework\src\traditional\proc\p18f4520.asm
                 RCONbits   0x000fd0       data     extern E:\c18v3.46\pic18-lt\cxx-framework\src\traditional\proc\p18f4520.asm
               WDTCONbits   0x000fd1       data     extern E:\c18v3.46\pic18-lt\cxx-framework\src\traditional\proc\p18f4520.asm
                   WDTCON   0x000fd1       data     extern E:\c18v3.46\pic18-lt\cxx-framework\src\traditional\proc\p18f4520.asm
                   LVDCON   0x000fd2       data     extern E:\c18v3.46\pic18-lt\cxx-framework\src\traditional\proc\p18f4520.asm
               LVDCONbits   0x000fd2       data     extern E:\c18v3.46\pic18-lt\cxx-framework\src\traditional\proc\p18f4520.asm
              HLVDCONbits   0x000fd2       data     extern E:\c18v3.46\pic18-lt\cxx-framework\src\traditional\proc\p18f4520.asm
                  HLVDCON   0x000fd2       data     extern E:\c18v3.46\pic18-lt\cxx-framework\src\traditional\proc\p18f4520.asm
                   OSCCON   0x000fd3       data     extern E:\c18v3.46\pic18-lt\cxx-framework\src\traditional\proc\p18f4520.asm
               OSCCONbits   0x000fd3       data     extern E:\c18v3.46\pic18-lt\cxx-framework\src\traditional\proc\p18f4520.asm
                    T0CON   0x000fd5       data     extern E:\c18v3.46\pic18-lt\cxx-framework\src\traditional\proc\p18f4520.asm
                T0CONbits   0x000fd5       data     extern E:\c18v3.46\pic18-lt\cxx-framework\src\traditional\proc\p18f4520.asm
                    TMR0L   0x000fd6       data     extern E:\c18v3.46\pic18-lt\cxx-framework\src\traditional\proc\p18f4520.asm
                    TMR0H   0x000fd7       data     extern E:\c18v3.46\pic18-lt\cxx-framework\src\traditional\proc\p18f4520.asm
                   STATUS   0x000fd8       data     extern E:\c18v3.46\pic18-lt\cxx-framework\src\traditional\proc\p18f4520.asm
               STATUSbits   0x000fd8       data     extern E:\c18v3.46\pic18-lt\cxx-framework\src\traditional\proc\p18f4520.asm
                     FSR2   0x000fd9       data     extern E:\c18v3.46\pic18-lt\cxx-framework\src\traditional\proc\p18f4520.asm
                    FSR2L   0x000fd9       data     extern E:\c18v3.46\pic18-lt\cxx-framework\src\traditional\proc\p18f4520.asm
                    FSR2H   0x000fda       data     extern E:\c18v3.46\pic18-lt\cxx-framework\src\traditional\proc\p18f4520.asm
                   PLUSW2   0x000fdb       data     extern E:\c18v3.46\pic18-lt\cxx-framework\src\traditional\proc\p18f4520.asm
                  PREINC2   0x000fdc       data     extern E:\c18v3.46\pic18-lt\cxx-framework\src\traditional\proc\p18f4520.asm
                 POSTDEC2   0x000fdd       data     extern E:\c18v3.46\pic18-lt\cxx-framework\src\traditional\proc\p18f4520.asm
                 POSTINC2   0x000fde       data     extern E:\c18v3.46\pic18-lt\cxx-framework\src\traditional\proc\p18f4520.asm
                    INDF2   0x000fdf       data     extern E:\c18v3.46\pic18-lt\cxx-framework\src\traditional\proc\p18f4520.asm
                      BSR   0x000fe0       data     extern E:\c18v3.46\pic18-lt\cxx-framework\src\traditional\proc\p18f4520.asm
                     FSR1   0x000fe1       data     extern E:\c18v3.46\pic18-lt\cxx-framework\src\traditional\proc\p18f4520.asm
                    FSR1L   0x000fe1       data     extern E:\c18v3.46\pic18-lt\cxx-framework\src\traditional\proc\p18f4520.asm
                    FSR1H   0x000fe2       data     extern E:\c18v3.46\pic18-lt\cxx-framework\src\traditional\proc\p18f4520.asm
                   PLUSW1   0x000fe3       data     extern E:\c18v3.46\pic18-lt\cxx-framework\src\traditional\proc\p18f4520.asm
                  PREINC1   0x000fe4       data     extern E:\c18v3.46\pic18-lt\cxx-framework\src\traditional\proc\p18f4520.asm
                 POSTDEC1   0x000fe5       data     extern E:\c18v3.46\pic18-lt\cxx-framework\src\traditional\proc\p18f4520.asm
                 POSTINC1   0x000fe6       data     extern E:\c18v3.46\pic18-lt\cxx-framework\src\traditional\proc\p18f4520.asm
                    INDF1   0x000fe7       data     extern E:\c18v3.46\pic18-lt\cxx-framework\src\traditional\proc\p18f4520.asm
                     WREG   0x000fe8       data     extern E:\c18v3.46\pic18-lt\cxx-framework\src\traditional\proc\p18f4520.asm
                        W   0x000fe8       data     extern E:\c18v3.46\pic18-lt\cxx-framework\src\traditional\proc\p18f4520.asm
                    FSR0L   0x000fe9       data     extern E:\c18v3.46\pic18-lt\cxx-framework\src\traditional\proc\p18f4520.asm
                     FSR0   0x000fe9       data     extern E:\c18v3.46\pic18-lt\cxx-framework\src\traditional\proc\p18f4520.asm
                    FSR0H   0x000fea       data     extern E:\c18v3.46\pic18-lt\cxx-framework\src\traditional\proc\p18f4520.asm
                   PLUSW0   0x000feb       data     extern E:\c18v3.46\pic18-lt\cxx-framework\src\traditional\proc\p18f4520.asm
                  PREINC0   0x000fec       data     extern E:\c18v3.46\pic18-lt\cxx-framework\src\traditional\proc\p18f4520.asm
                 POSTDEC0   0x000fed       data     extern E:\c18v3.46\pic18-lt\cxx-framework\src\traditional\proc\p18f4520.asm
                 POSTINC0   0x000fee       data     extern E:\c18v3.46\pic18-lt\cxx-framework\src\traditional\proc\p18f4520.asm
                    INDF0   0x000fef       data     extern E:\c18v3.46\pic18-lt\cxx-framework\src\traditional\proc\p18f4520.asm
              INTCON3bits   0x000ff0       data     extern E:\c18v3.46\pic18-lt\cxx-framework\src\traditional\proc\p18f4520.asm
                  INTCON3   0x000ff0       data     extern E:\c18v3.46\pic18-lt\cxx-framework\src\traditional\proc\p18f4520.asm
              INTCON2bits   0x000ff1       data     extern E:\c18v3.46\pic18-lt\cxx-framework\src\traditional\proc\p18f4520.asm
                  INTCON2   0x000ff1       data     extern E:\c18v3.46\pic18-lt\cxx-framework\src\traditional\proc\p18f4520.asm
                   INTCON   0x000ff2       data     extern E:\c18v3.46\pic18-lt\cxx-framework\src\traditional\proc\p18f4520.asm
               INTCONbits   0x000ff2       data     extern E:\c18v3.46\pic18-lt\cxx-framework\src\traditional\proc\p18f4520.asm
                    PRODL   0x000ff3       data     extern E:\c18v3.46\pic18-lt\cxx-framework\src\traditional\proc\p18f4520.asm
                     PROD   0x000ff3       data     extern E:\c18v3.46\pic18-lt\cxx-framework\src\traditional\proc\p18f4520.asm
                    PRODH   0x000ff4       data     extern E:\c18v3.46\pic18-lt\cxx-framework\src\traditional\proc\p18f4520.asm
                   TABLAT   0x000ff5       data     extern E:\c18v3.46\pic18-lt\cxx-framework\src\traditional\proc\p18f4520.asm
                   TBLPTR   0x000ff6       data     extern E:\c18v3.46\pic18-lt\cxx-framework\src\traditional\proc\p18f4520.asm
                  TBLPTRL   0x000ff6       data     extern E:\c18v3.46\pic18-lt\cxx-framework\src\traditional\proc\p18f4520.asm
                  TBLPTRH   0x000ff7       data     extern E:\c18v3.46\pic18-lt\cxx-framework\src\traditional\proc\p18f4520.asm
                  TBLPTRU   0x000ff8       data     extern E:\c18v3.46\pic18-lt\cxx-framework\src\traditional\proc\p18f4520.asm
                       PC   0x000ff9       data     extern E:\c18v3.46\pic18-lt\cxx-framework\src\traditional\proc\p18f4520.asm
                      PCL   0x000ff9       data     extern E:\c18v3.46\pic18-lt\cxx-framework\src\traditional\proc\p18f4520.asm
                   PCLATH   0x000ffa       data     extern E:\c18v3.46\pic18-lt\cxx-framework\src\traditional\proc\p18f4520.asm
                   PCLATU   0x000ffb       data     extern E:\c18v3.46\pic18-lt\cxx-framework\src\traditional\proc\p18f4520.asm
               STKPTRbits   0x000ffc       data     extern E:\c18v3.46\pic18-lt\cxx-framework\src\traditional\proc\p18f4520.asm
                   STKPTR   0x000ffc       data     extern E:\c18v3.46\pic18-lt\cxx-framework\src\traditional\proc\p18f4520.asm
                     TOSL   0x000ffd       data     extern E:\c18v3.46\pic18-lt\cxx-framework\src\traditional\proc\p18f4520.asm
                      TOS   0x000ffd       data     extern E:\c18v3.46\pic18-lt\cxx-framework\src\traditional\proc\p18f4520.asm
                     TOSH   0x000ffe       data     extern E:\c18v3.46\pic18-lt\cxx-framework\src\traditional\proc\p18f4520.asm
                     TOSU   0x000fff       data     extern E:\c18v3.46\pic18-lt\cxx-framework\src\traditional\proc\p18f4520.asm


